target datalayout = "e-m:e-p270:32:32-p271:32:32-p272:64:64-i64:64-i128:128-f80:128-n8:16:32:64-S128"
target triple = "x86_64-unknown-linux-gnu"

%class.JSONStringValueDeserializer = type <{ %"class.base::ValueDeserializer", %"class.base::BasicStringPiece", i8, [7 x i8] }>
%"class.base::ValueDeserializer" = type { ptr }
%"class.base::BasicStringPiece" = type { ptr, i64 }

@_ZTVN4base17ValueDeserializerE = external unnamed_addr constant { [5 x ptr] }, align 8

; Function Attrs: mustprogress nounwind uwtable
define linkonce_odr dso_local void @_ZN4base17ValueDeserializerC2Ev(ptr noundef nonnull align 8 dereferenceable(8) %this) unnamed_addr #0 comdat align 2 {
entry:
  %this.addr = alloca ptr, align 8
  store ptr %this, ptr %this.addr, align 8
  %this1 = load ptr, ptr %this.addr, align 8
  store ptr getelementptr inbounds ({ [5 x ptr] }, ptr @_ZTVN4base17ValueDeserializerE, i32 0, i32 0, i32 2), ptr %this1, align 8
  ret void
}

; Function Attrs: mustprogress nounwind uwtable
define dso_local void @_ZN27JSONStringValueDeserializerC2ERKN4base16BasicStringPieceINSt7__cxx1112basic_stringIcSt11char_traitsIcESaIcEEEEE(ptr noundef nonnull align 8 dereferenceable(25) %this, ptr noundef nonnull align 8 dereferenceable(16) %json_string) unnamed_addr #0 align 2 {
entry:
  %this.addr = alloca ptr, align 8
  %json_string.addr = alloca ptr, align 8
  store ptr %this, ptr %this.addr, align 8
  store ptr %json_string, ptr %json_string.addr, align 8
  %this1 = load ptr, ptr %this.addr, align 8
  call void @_ZN4base17ValueDeserializerC2Ev(ptr noundef nonnull align 8 dereferenceable(8) %this1) #6
  store ptr getelementptr inbounds ({ [5 x ptr] }, ptr @_ZTV27JSONStringValueDeserializer, i32 0, i32 0, i32 2), ptr %this1, align 8
  %json_string_ = getelementptr inbounds %class.JSONStringValueDeserializer, ptr %this1, i32 0, i32 1
  %0 = load ptr, ptr %json_string.addr, align 8
  call void @llvm.memcpy.p0.p0.i64(ptr align 8 %json_string_, ptr align 8 %0, i64 16, i1 false)
  %allow_trailing_comma_ = getelementptr inbounds %class.JSONStringValueDeserializer, ptr %this1, i32 0, i32 2
  store i8 0, ptr %allow_trailing_comma_, align 8
  ret void
}