; Function Attrs: mustprogress nofree norecurse nosync nounwind willreturn memory(argmem: readwrite) uwtable
define dso_local void @_ZN27JSONStringValueDeserializerC2ERKN4base16BasicStringPieceINSt7__cxx1112basic_stringIcSt11char_traitsIcESaIcEEEEE(ptr nocapture noundef nonnull writeonly align 8 dereferenceable(25) %this, ptr nocapture noundef nonnull readonly align 8 dereferenceable(16) %json_string) unnamed_addr #6 align 2 {
entry:
  store ptr getelementptr inbounds ({ [5 x ptr] }, ptr @_ZTV27JSONStringValueDeserializer, i64 0, i32 0, i64 2), ptr %this, align 8
  %json_string_ = getelementptr inbounds i8, ptr %this, i64 8
  tail call void @llvm.memcpy.p0.p0.i64(ptr noundef nonnull align 8 dereferenceable(16) %json_string_, ptr noundef nonnull align 8 dereferenceable(16) %json_string, i64 16, i1 false)
  %allow_trailing_comma_ = getelementptr inbounds i8, ptr %this, i64 24
  store i8 0, ptr %allow_trailing_comma_, align 8
  ret void
}